(i__main__
Benchmark
p1
(dp2
S'tests'
p3
(dp4
S'SpecialInstanceAttribute'
p5
(iLookups
SpecialInstanceAttribute
p6
(dp7
S'operations'
p8
I120
sS'warp'
p9
I20
sS'times'
p10
(lp11
F0.20949999999999996
aF0.18950000000000128
aF0.18949999999999764
aF0.19899999999999932
aF0.18949999999999764
aF0.18949999999999784
aF0.18949999999999784
aF0.20950000000000096
aF0.19950000000000295
aF0.19949999999998838
asS'version'
p12
F0.29999999999999999
sS'overhead'
p13
(lp14
sS'rounds'
p15
I5000
sS'last_timing'
p16
(F0.19949999999998838
F0.19999999999998863
F0.00050000000000025577
tp17
sbsS'PythonFunctionCalls'
p18
(iCalls
PythonFunctionCalls
p19
(dp20
g8
I55
sg9
I20
sg10
(lp21
F0.10949999999999986
aF0.10949999999999944
aF0.11000000000000298
aF0.10949999999999935
aF0.10999999999999943
aF0.11949999999999719
aF0.10949999999999918
aF0.10949999999999918
aF0.10949999999999953
aF0.10999999999999943
asg12
F0.29999999999999999
sg13
(lp22
sg15
I3000
sg16
(F0.10999999999999943
F0.10999999999999943
F0
tp23
sbsS'CompareFloatsIntegers'
p24
(iNumbers
CompareFloatsIntegers
p25
(dp26
g8
I150
sg9
I20
sg10
(lp27
F0.13
aF0.13999999999999968
aF0.12950000000000078
aF0.12949999999999892
aF0.12949999999999892
aF0.12950000000000267
aF0.1294999999999952
aF0.13000000000000256
aF0.13950000000000068
aF0.12950000000000267
asg12
F0.10000000000000001
sg13
(lp28
sg15
I3000
sg16
(F0.12950000000000267
F0.13000000000000256
F0.00049999999999990048
tp29
sbsS'PythonMethodCalls'
p30
(iCalls
PythonMethodCalls
p31
(dp32
g8
I75
sg9
I20
sg10
(lp33
F0.12000000000000011
aF0.12000000000000099
aF0.10999999999999943
aF0.10999999999999943
aF0.12000000000000099
aF0.11999999999999744
aF0.10999999999999943
aF0.10999999999999943
aF0.10999999999999943
aF0.10949999999999953
asg12
F0.29999999999999999
sg13
(lp34
sg15
I1000
sg16
(F0.10949999999999953
F0.10999999999999943
F0.00049999999999990048
tp35
sbsS'SecondSubmoduleImport'
p36
(iImports
SecondSubmoduleImport
p37
(dp38
g8
I25
sg9
I20
sg10
(lp39
F0.080000000000000071
aF0.079500000000000084
aF0.080000000000001847
aF0.080000000000001847
aF0.069999999999996732
aF0.079999999999998295
aF0.079999999999998295
aF0.079999999999998295
aF0.079999999999998295
aF0.079999999999998295
asg12
F0.10000000000000001
sg13
(lp40
sg15
I1000
sg16
(F0.079999999999998295
F0.079999999999998295
F0
tp41
sbsS'DictWithIntegerKeys'
p42
(iDict
DictWithIntegerKeys
p43
(dp44
g8
I60
sg9
I20
sg10
(lp45
F0.12899999999999989
aF0.12899999999999903
aF0.12899999999999903
aF0.12900000000000258
aF0.1390000000000006
aF0.12850000000000286
aF0.13900000000000076
aF0.12899999999999529
aF0.12899999999999529
aF0.13900000000000076
asg12
F0.10000000000000001
sg13
(lp46
sg15
I10000
sg16
(F0.13900000000000076
F0.14000000000000057
F0.00099999999999980096
tp47
sbsS'UnicodeSlicing'
p48
(iUnicode
UnicodeSlicing
p49
(dp50
g8
I35
sg9
I20
sg10
(lp51
F0.10950000000000033
aF0.11950000000000101
aF0.10949999999999935
aF0.10949999999999953
aF0.10949999999999918
aF0.10950000000000663
aF0.10949999999999953
aF0.10899999999999962
aF0.10849999999999937
aF0.10949999999999989
asg12
F0.10000000000000001
sg13
(lp52
sg15
I5000
sg16
(F0.10949999999999989
F0.10999999999999943
F0.0004999999999995453
tp53
sbsS'NestedForLoops'
p54
(iConstructs
NestedForLoops
p55
(dp56
g8
I50000
sg9
I20
sg10
(lp57
F0.060000000000000053
aF0.060000000000000497
aF0.059500000000000511
aF0.060000000000002274
aF0.060000000000002274
aF0.060000000000002274
aF0.060000000000002274
aF0.059999999999995168
aF0.059999999999995168
aF0.070000000000000284
asg12
F0.29999999999999999
sg13
(lp58
sg15
I7
sg16
(F0.070000000000000284
F0.070000000000000284
F0
tp59
sbsS'UnicodePredicates'
p60
(iUnicode
UnicodePredicates
p61
(dp62
g8
I45
sg9
I20
sg10
(lp63
F0.1180000000000001
aF0.12800000000000084
aF0.13800000000000043
aF0.11799999999999748
aF0.12799999999999551
aF0.12799999999999551
aF0.11800000000000459
aF0.12800000000000261
aF0.12799999999999551
aF0.12800000000001005
asg12
F0.10000000000000001
sg13
(lp64
sg15
I5000
sg16
(F0.12800000000001005
F0.13000000000000966
F0.0019999999999996019
tp65
sbsS'ForLoops'
p66
(iConstructs
ForLoops
p67
(dp68
g8
I25
sg9
I20
sg10
(lp69
F0.070000000000000284
aF0.069500000000000298
aF0.070000000000000284
aF0.070000000000000284
aF0.070000000000000284
aF0.079499999999998044
aF0.069500000000000034
aF0.070000000000000284
aF0.070000000000000284
aF0.070000000000000284
asg12
F0.10000000000000001
sg13
(lp70
sg15
I400
sg16
(F0.070000000000000284
F0.070000000000000284
F0
tp71
sbsS'ConcatStrings'
p72
(iStrings
ConcatStrings
p73
(dp74
g8
I50
sg9
I20
sg10
(lp75
F0.099499999999999866
aF0.099500000000000546
aF0.099500000000001435
aF0.099499999999997785
aF0.088999999999999885
aF0.098999999999994162
aF0.088999999999996152
aF0.10949999999999953
aF0.099500000000001518
aF0.099500000000001518
asg12
F0.10000000000000001
sg13
(lp76
sg15
I3000
sg16
(F0.099500000000001518
F0.10000000000000142
F0.00049999999999990048
tp77
sbsS'SecondPackageImport'
p78
(iImports
SecondPackageImport
p79
(dp80
g8
I25
sg9
I20
sg10
(lp81
F0.059500000000000039
aF0.060000000000000497
aF0.059499999999998644
aF0.059499999999998644
aF0.059999999999998721
aF0.060000000000002274
aF0.060000000000002274
aF0.05950000000000237
aF0.069500000000000034
aF0.070000000000000284
asg12
F0.10000000000000001
sg13
(lp82
sg15
I1000
sg16
(F0.070000000000000284
F0.070000000000000284
F0
tp83
sbsS'CompareIntegers'
p84
(iNumbers
CompareIntegers
p85
(dp86
g8
I150
sg9
I20
sg10
(lp87
F0.089499999999999968
aF0.08950000000000076
aF0.099499999999999658
aF0.089499999999999955
aF0.089499999999999774
aF0.089499999999996402
aF0.089499999999996055
aF0.089499999999996055
aF0.099500000000001518
aF0.099500000000001518
asg12
F0.10000000000000001
sg13
(lp88
sg15
I6000
sg16
(F0.099500000000001518
F0.10000000000000142
F0.00049999999999990048
tp89
sbsS'CreateStringsWithConcat'
p90
(iStrings
CreateStringsWithConcat
p91
(dp92
g8
I50
sg9
I20
sg10
(lp93
F0.049500000000000044
aF0.060000000000000497
aF0.049500000000000724
aF0.049500000000000634
aF0.049500000000000807
aF0.04950000000000436
aF0.049499999999997255
aF0.059999999999995168
aF0.060000000000002274
aF0.04950000000000436
asg12
F0.10000000000000001
sg13
(lp94
sg15
I4000
sg16
(F0.04950000000000436
F0.050000000000004263
F0.00049999999999990048
tp95
sbsS'SmallLists'
p96
(iLists
SmallLists
p97
(dp98
g8
I85
sg9
I20
sg10
(lp99
F0.11949999999999919
aF0.11950000000000101
aF0.11899999999999747
aF0.11949999999999736
aF0.11950000000000109
aF0.11899999999999729
aF0.11900000000000474
aF0.11949999999999754
aF0.11949999999999754
aF0.11949999999999719
asg12
F0.29999999999999999
sg13
(lp100
sg15
I3000
sg16
(F0.11949999999999719
F0.11999999999999744
F0.00050000000000025577
tp101
sbsS'CompareUnicode'
p102
(iUnicode
CompareUnicode
p103
(dp104
g8
I50
sg9
I20
sg10
(lp105
F0.1095000000000001
aF0.11950000000000008
aF0.10899999999999946
aF0.10899999999999946
aF0.10949999999999935
aF0.099000000000001614
aF0.099000000000001614
aF0.10949999999999918
aF0.10899999999999928
aF0.10900000000000673
asg12
F0.10000000000000001
sg13
(lp106
sg15
I7500
sg16
(F0.10900000000000673
F0.11000000000000654
F0.00099999999999980096
tp107
sbsS'SimpleListManipulation'
p108
(iLists
SimpleListManipulation
p109
(dp110
g8
I90
sg9
I20
sg10
(lp111
F0.069500000000000298
aF0.079500000000000084
aF0.05950000000000237
aF0.05950000000000237
aF0.070000000000000284
aF0.069500000000000034
aF0.059499999999994911
aF0.059499999999994911
aF0.05950000000000237
aF0.070000000000000284
asg12
F0.20000000000000001
sg13
(lp112
sg15
I3000
sg16
(F0.070000000000000284
F0.070000000000000284
F0
tp113
sbsS'DictWithFloatKeys'
p114
(iDict
DictWithFloatKeys
p115
(dp116
g8
I60
sg9
I20
sg10
(lp117
F0.22899999999999998
aF0.23900000000000024
aF0.22900000000000045
aF0.22900000000000045
aF0.22900000000000045
aF0.22900000000000417
aF0.22850000000000392
aF0.22899999999999671
aF0.22899999999999671
aF0.22900000000000417
asg12
F0.10000000000000001
sg13
(lp118
sg15
I10000
sg16
(F0.22900000000000417
F0.23000000000000398
F0.00099999999999980096
tp119
sbsS'TryExcept'
p120
(iExceptions
TryExcept
p121
(dp122
g8
I150
sg9
I20
sg10
(lp123
F0.17900000000000063
aF0.17899999999999974
aF0.17899999999999974
aF0.17899999999999974
aF0.18899999999999756
aF0.16900000000000154
aF0.17899999999999991
aF0.17899999999999991
aF0.17899999999999991
aF0.1789999999999928
asg12
F0.10000000000000001
sg13
(lp124
sg15
I10000
sg16
(F0.1789999999999928
F0.17999999999999261
F0.00099999999999980096
tp125
sbsS'SimpleDictManipulation'
p126
(iDict
SimpleDictManipulation
p127
(dp128
g8
I120
sg9
I20
sg10
(lp129
F0.089500000000000315
aF0.089999999999999858
aF0.088999999999999885
aF0.079499999999998211
aF0.089999999999999858
aF0.090000000000003411
aF0.090000000000003411
aF0.079499999999998391
aF0.079499999999998391
aF0.079499999999998044
asg12
F0.29999999999999999
sg13
(lp130
sg15
I2500
sg16
(F0.079499999999998044
F0.079999999999998295
F0.00050000000000025577
tp131
sbsS'TryRaiseExcept'
p132
(iExceptions
TryRaiseExcept
p133
(dp134
g8
I5
sg9
I20
sg10
(lp135
F0.099499999999999658
aF0.10000000000000142
aF0.089499999999999955
aF0.099499999999997785
aF0.10000000000000142
aF0.10000000000000142
aF0.089499999999996055
aF0.089500000000003507
aF0.089500000000003507
aF0.10999999999999943
asg12
F0.10000000000000001
sg13
(lp136
sg15
I3000
sg16
(F0.10999999999999943
F0.10999999999999943
F0
tp137
sbsS'IfThenElse'
p138
(iConstructs
IfThenElse
p139
(dp140
g8
I90
sg9
I20
sg10
(lp141
F0.068999999999999839
aF0.069500000000000298
aF0.069000000000000311
aF0.069000000000000311
aF0.079499999999998211
aF0.069500000000000381
aF0.069500000000000381
aF0.069000000000000131
aF0.069000000000000131
aF0.068999999999993025
asg12
F0.31
sg13
(lp142
sg15
I7500
sg16
(F0.068999999999993025
F0.069999999999993179
F0.0010000000000001564
tp143
sbsS'NormalInstanceAttribute'
p144
(iLookups
NormalInstanceAttribute
p145
(dp146
g8
I120
sg9
I20
sg10
(lp147
F0.14949999999999991
aF0.14950000000000035
aF0.15900000000000017
aF0.15900000000000017
aF0.15950000000000006
aF0.14949999999999869
aF0.14949999999999869
aF0.1594999999999967
aF0.14949999999999833
aF0.15950000000000381
asg12
F0.29999999999999999
sg13
(lp148
sg15
I5000
sg16
(F0.15950000000000381
F0.16000000000000369
F0.00049999999999990048
tp149
sbsS'BuiltinFunctionCalls'
p150
(iCalls
BuiltinFunctionCalls
p151
(dp152
g8
I85
sg9
I20
sg10
(lp153
F0.089999999999999969
aF0.10000000000000053
aF0.080000000000000071
aF0.079500000000001944
aF0.10000000000000142
aF0.079499999999998391
aF0.079499999999998391
aF0.089999999999996305
aF0.079999999999998295
aF0.079999999999998295
asg12
F0.40000000000000002
sg13
(lp154
sg15
I1500
sg16
(F0.079999999999998295
F0.079999999999998295
F0
tp155
sbsS'UnicodeMappings'
p156
(iUnicode
UnicodeMappings
p157
(dp158
g8
I36
sg9
I20
sg10
(lp159
F0.21849999999999975
aF0.22900000000000045
aF0.21899999999999889
aF0.20850000000000096
aF0.2189999999999987
aF0.22900000000000417
aF0.21849999999999881
aF0.20800000000000091
aF0.2085000000000008
aF0.21899999999999836
asg12
F0.10000000000000001
sg13
(lp160
sg15
I500
sg16
(F0.21899999999999836
F0.21999999999999886
F0.0010000000000005115
tp161
sbsS'CompareFloats'
p162
(iNumbers
CompareFloats
p163
(dp164
g8
I150
sg9
I20
sg10
(lp165
F0.089499999999999968
aF0.08949999999999983
aF0.099999999999999645
aF0.089999999999999858
aF0.089499999999999955
aF0.089500000000003507
aF0.089499999999996402
aF0.089499999999996402
aF0.090000000000003411
aF0.090000000000003411
asg12
F0.10000000000000001
sg13
(lp166
sg15
I3000
sg16
(F0.090000000000003411
F0.090000000000003411
F0
tp167
sbsS'StringMappings'
p168
(iStrings
StringMappings
p169
(dp170
g8
I36
sg9
I20
sg10
(lp171
F0.34949999999999959
aF0.35949999999999943
aF0.33899999999999986
aF0.34950000000000137
aF0.34900000000000142
aF0.34900000000000125
aF0.34949999999999404
aF0.34949999999999404
aF0.34950000000000153
aF0.34949999999999404
asg12
F0.10000000000000001
sg13
(lp172
sg15
I3500
sg16
(F0.34949999999999404
F0.34999999999999432
F0.00050000000000025577
tp173
sbsS'Recursion'
p174
(iCalls
Recursion
p175
(dp176
g8
I5
sg9
I20
sg10
(lp177
F0.069499999999999854
aF0.080000000000000071
aF0.069500000000000201
aF0.069500000000000201
aF0.079999999999998295
aF0.070000000000000284
aF0.070000000000000284
aF0.069500000000000381
aF0.069500000000000034
aF0.0800000000000054
asg12
F0.29999999999999999
sg13
(lp178
sg15
I2500
sg16
(F0.0800000000000054
F0.0800000000000054
F0
tp179
sbsS'SimpleLongArithmetic'
p180
(iArithmetic
SimpleLongArithmetic
p181
(dp182
g8
I110
sg9
I20
sg10
(lp183
F0.079500000000000084
aF0.080000000000000071
aF0.079500000000001944
aF0.079999999999998295
aF0.080000000000001847
aF0.069500000000000381
aF0.069500000000000034
aF0.0800000000000054
aF0.079999999999998295
aF0.079999999999998295
asg12
F0.29999999999999999
sg13
(lp184
sg15
I1500
sg16
(F0.079999999999998295
F0.079999999999998295
F0
tp185
sbsS'UnicodeProperties'
p186
(iUnicode
UnicodeProperties
p187
(dp188
g8
I40
sg9
I20
sg10
(lp189
F0.13799999999999968
aF0.12799999999999895
aF0.12799999999999906
aF0.13800000000000043
aF0.12799999999999515
aF0.12799999999999515
aF0.13800000000000062
aF0.12800000000000261
aF0.12799999999999515
aF0.12800000000001005
asg12
F0.10000000000000001
sg13
(lp190
sg15
I5000
sg16
(F0.12800000000001005
F0.13000000000000966
F0.0019999999999996019
tp191
sbsS'SimpleIntFloatArithmetic'
p192
(iArithmetic
SimpleIntFloatArithmetic
p193
(dp194
g8
I110
sg9
I20
sg10
(lp195
F0.08949999999999983
aF0.089499999999999871
aF0.088999999999999885
aF0.089000000000003437
aF0.088999999999999885
aF0.089500000000003507
aF0.089500000000003507
aF0.088999999999996152
aF0.088999999999996152
aF0.089500000000003507
asg12
F0.29999999999999999
sg13
(lp196
sg15
I6000
sg16
(F0.089500000000003507
F0.090000000000003411
F0.00049999999999990048
tp197
sbsS'CreateUnicodeWithConcat'
p198
(iUnicode
CreateUnicodeWithConcat
p199
(dp200
g8
I50
sg9
I20
sg10
(lp201
F0.15949999999999992
aF0.14949999999999858
aF0.14949999999999858
aF0.14950000000000224
aF0.1494999999999985
aF0.14949999999999869
aF0.14949999999999833
aF0.14949999999999833
aF0.17000000000000171
aF0.14949999999999869
asg12
F0.10000000000000001
sg13
(lp202
sg15
I4000
sg16
(F0.14949999999999869
F0.14999999999999858
F0.00049999999999990048
tp203
sbsS'ListSlicing'
p204
(iLists
ListSlicing
p205
(dp206
g8
I175
sg9
I20
sg10
(lp207
F0.080000000000000071
aF0.069500000000000298
aF0.060000000000000497
aF0.059999999999998721
aF0.059999999999998721
aF0.05950000000000237
aF0.069500000000000381
aF0.05950000000000237
aF0.079999999999998295
aF0.060000000000002274
asg12
F0.40000000000000002
sg13
(lp208
sg15
I20
sg16
(F0.060000000000002274
F0.060000000000002274
F0
tp209
sbsS'CompareLongs'
p210
(iNumbers
CompareLongs
p211
(dp212
g8
I150
sg9
I20
sg10
(lp213
F0.099500000000000088
aF0.089499999999999871
aF0.089499999999999871
aF0.079500000000001944
aF0.089999999999999858
aF0.090000000000003411
aF0.090000000000003411
aF0.089500000000003507
aF0.089500000000003507
aF0.089499999999996055
asg12
F0.10000000000000001
sg13
(lp214
sg15
I3000
sg16
(F0.089499999999996055
F0.089999999999996305
F0.00050000000000025577
tp215
sbsS'SimpleIntegerArithmetic'
p216
(iArithmetic
SimpleIntegerArithmetic
p217
(dp218
g8
I110
sg9
I20
sg10
(lp219
F0.089499999999999871
aF0.089499999999999871
aF0.089499999999999774
aF0.099500000000001518
aF0.099499999999997785
aF0.089499999999996402
aF0.089499999999996402
aF0.089499999999996402
aF0.089499999999996055
aF0.088999999999996152
asg12
F0.29999999999999999
sg13
(lp220
sg15
I6000
sg16
(F0.088999999999996152
F0.089999999999996305
F0.0010000000000001564
tp221
sbsS'SpecialClassAttribute'
p222
(iLookups
SpecialClassAttribute
p223
(dp224
g8
I120
sg9
I20
sg10
(lp225
F0.14949999999999944
aF0.14950000000000035
aF0.15950000000000025
aF0.1494999999999985
aF0.15950000000000025
aF0.15950000000000381
aF0.15950000000000381
aF0.14949999999999869
aF0.14949999999999869
aF0.15949999999999634
asg12
F0.29999999999999999
sg13
(lp226
sg15
I5000
sg16
(F0.15949999999999634
F0.15999999999999659
F0.00050000000000025577
tp227
sbsS'SecondImport'
p228
(iImports
SecondImport
p229
(dp230
g8
I25
sg9
I20
sg10
(lp231
F0.060000000000000053
aF0.059999999999998721
aF0.059999999999998721
aF0.059999999999998721
aF0.060000000000002274
aF0.059499999999994911
aF0.05950000000000237
aF0.060000000000002274
aF0.059999999999995168
aF0.059999999999995168
asg12
F0.10000000000000001
sg13
(lp232
sg15
I1000
sg16
(F0.059999999999995168
F0.059999999999995168
F0
tp233
sbsS'TupleSlicing'
p234
(iTuples
TupleSlicing
p235
(dp236
g8
I5250
sg9
I20
sg10
(lp237
F0.099499999999999617
aF0.10999999999999943
aF0.099499999999997785
aF0.099500000000001337
aF0.10999999999999943
aF0.10999999999999943
aF0.099499999999994065
aF0.099500000000001518
aF0.10999999999999943
aF0.10999999999999943
asg12
F0.31
sg13
(lp238
sg15
I20
sg16
(F0.10999999999999943
F0.10999999999999943
F0
tp239
sbsS'SimpleFloatArithmetic'
p240
(iArithmetic
SimpleFloatArithmetic
p241
(dp242
g8
I110
sg9
I20
sg10
(lp243
F0.089499999999999871
aF0.099499999999999561
aF0.089499999999999774
aF0.099499999999997785
aF0.099500000000001518
aF0.099500000000001518
aF0.099500000000001518
aF0.088999999999996152
aF0.099500000000001518
aF0.10949999999999953
asg12
F0.29999999999999999
sg13
(lp244
sg15
I5000
sg16
(F0.10949999999999953
F0.10999999999999943
F0.00049999999999990048
tp245
sbsS'StringPredicates'
p246
(iStrings
StringPredicates
p247
(dp248
g8
I70
sg9
I20
sg10
(lp249
F0.1884999999999995
aF0.17850000000000152
aF0.18799999999999759
aF0.18850000000000139
aF0.17849999999999966
aF0.17799999999999977
aF0.17800000000000687
aF0.18849999999999767
aF0.19849999999999568
aF0.18850000000001188
asg12
F0.10000000000000001
sg13
(lp250
sg15
I4000
sg16
(F0.18850000000001188
F0.19000000000001194
F0.0015000000000000568
tp251
sbsS'BuiltinMethodLookup'
p252
(iLookups
BuiltinMethodLookup
p253
(dp254
g8
I150
sg9
I20
sg10
(lp255
F0.16000000000000003
aF0.15999999999999925
aF0.15950000000000014
aF0.15950000000000025
aF0.16000000000000014
aF0.14949999999999833
aF0.14950000000000579
aF0.16000000000000369
aF0.15949999999999634
aF0.15949999999999634
asg12
F0.29999999999999999
sg13
(lp256
sg15
I3500
sg16
(F0.15949999999999634
F0.15999999999999659
F0.00050000000000025577
tp257
sbsS'SimpleComplexArithmetic'
p258
(iArithmetic
SimpleComplexArithmetic
p259
(dp260
g8
I110
sg9
I20
sg10
(lp261
F0.12999999999999989
aF0.099499999999999658
aF0.099999999999997868
aF0.099999999999997868
aF0.099500000000001337
aF0.099500000000001518
aF0.10949999999999953
aF0.10000000000000142
aF0.10000000000000142
aF0.10000000000000142
asg12
F0.29999999999999999
sg13
(lp262
sg15
I2000
sg16
(F0.10000000000000142
F0.10000000000000142
F0
tp263
sbsS'ConcatUnicode'
p264
(iUnicode
ConcatUnicode
p265
(dp266
g8
I50
sg9
I20
sg10
(lp267
F0.11950000000000011
aF0.10949999999999944
aF0.10949999999999944
aF0.10949999999999935
aF0.10899999999999946
aF0.10899999999999928
aF0.10899999999999928
aF0.10949999999999953
aF0.10949999999999953
aF0.10949999999999953
asg12
F0.10000000000000001
sg13
(lp268
sg15
I3000
sg16
(F0.10949999999999953
F0.10999999999999943
F0.00049999999999990048
tp269
sbsS'CompareInternedStrings'
p270
(iStrings
CompareInternedStrings
p271
(dp272
g8
I50
sg9
I20
sg10
(lp273
F0.078999999999999959
aF0.079000000000000098
aF0.079000000000000098
aF0.078500000000001791
aF0.088999999999999885
aF0.088999999999996152
aF0.098999999999994162
aF0.078999999999998141
aF0.078999999999998141
aF0.078999999999998488
asg12
F0.10000000000000001
sg13
(lp274
sg15
I10000
sg16
(F0.078999999999998488
F0.079999999999998295
F0.00099999999999980096
tp275
sbsS'CompareStrings'
p276
(iStrings
CompareStrings
p277
(dp278
g8
I50
sg9
I20
sg10
(lp279
F0.10899999999999987
aF0.1089999999999994
aF0.099000000000001448
aF0.099000000000001448
aF0.10899999999999946
aF0.10899999999999928
aF0.10899999999999928
aF0.10899999999999962
aF0.099000000000001614
aF0.10899999999999928
asg12
F0.20000000000000001
sg13
(lp280
sg15
I10000
sg16
(F0.10899999999999928
F0.10999999999999943
F0.0010000000000001564
tp281
sbsS'SmallTuples'
p282
(iTuples
SmallTuples
p283
(dp284
g8
I60
sg9
I20
sg10
(lp285
F0.1094999999999994
aF0.10949999999999944
aF0.11000000000000298
aF0.10949999999999935
aF0.10950000000000308
aF0.10999999999999943
aF0.10949999999999953
aF0.10949999999999918
aF0.10950000000000663
aF0.10949999999999953
asg12
F0.29999999999999999
sg13
(lp286
sg15
I4000
sg16
(F0.10949999999999953
F0.10999999999999943
F0.00049999999999990048
tp287
sbsS'NormalClassAttribute'
p288
(iLookups
NormalClassAttribute
p289
(dp290
g8
I120
sg9
I20
sg10
(lp291
F0.16949999999999993
aF0.16949999999999993
aF0.15950000000000025
aF0.15950000000000025
aF0.16950000000000182
aF0.16950000000000182
aF0.16950000000000182
aF0.16950000000000146
aF0.16949999999999435
aF0.16950000000000182
asg12
F0.29999999999999999
sg13
(lp292
sg15
I5000
sg16
(F0.16950000000000182
F0.17000000000000171
F0.00049999999999990048
tp293
sbsS'CreateInstances'
p294
(iInstances
CreateInstances
p295
(dp296
g8
I14
sg9
I20
sg10
(lp297
F0.1399999999999999
aF0.14000000000000057
aF0.12900000000000081
aF0.13949999999999693
aF0.12949999999999892
aF0.14000000000000057
aF0.14000000000000057
aF0.13950000000000032
aF0.12950000000000267
aF0.12950000000000267
asg12
F0.20000000000000001
sg13
(lp298
sg15
I3000
sg16
(F0.12950000000000267
F0.13000000000000256
F0.00049999999999990048
tp299
sbsS'DictWithStringKeys'
p300
(iDict
DictWithStringKeys
p301
(dp302
g8
I60
sg9
I20
sg10
(lp303
F0.10899999999999987
aF0.098499999999999588
aF0.11899999999999915
aF0.10899999999999946
aF0.10899999999999946
aF0.098999999999994162
aF0.098999999999994162
aF0.10899999999999962
aF0.10899999999999928
aF0.10899999999999928
asg12
F0.10000000000000001
sg13
(lp304
sg15
I10000
sg16
(F0.10899999999999928
F0.10999999999999943
F0.0010000000000001564
tp305
sbsS'DictCreation'
p306
(iDict
DictCreation
p307
(dp308
g8
I50
sg9
I20
sg10
(lp309
F0.09000000000000008
aF0.079499999999999987
aF0.089499999999999774
aF0.089499999999999955
aF0.089499999999999774
aF0.079500000000005497
aF0.079499999999998391
aF0.089999999999996305
aF0.089999999999996305
aF0.089500000000003507
asg12
F0.29999999999999999
sg13
(lp310
sg15
I3000
sg16
(F0.089500000000003507
F0.090000000000003411
F0.00049999999999990048
tp311
sbsS'StringSlicing'
p312
(iStrings
StringSlicing
p313
(dp314
g8
I35
sg9
I20
sg10
(lp315
F0.099499999999999617
aF0.099499999999999658
aF0.089000000000003437
aF0.099500000000001518
aF0.098999999999997895
aF0.099000000000001614
aF0.10949999999999953
aF0.099500000000001171
aF0.099500000000001171
aF0.099500000000008984
asg12
F0.10000000000000001
sg13
(lp316
sg15
I5000
sg16
(F0.099500000000008984
F0.10000000000000853
F0.0004999999999995453
tp317
sbssS'name'
p318
S'python2.4.2.bench'
p319
sS'roundtime'
p320
F6.5750000000000002
sg9
I20
sg12
F0.31
sg15
I10
sb.